target datalayout = "e-m:e-p270:32:32-p271:32:32-p272:64:64-i64:64-i128:128-f80:128-n8:16:32:64-S128"
target triple = "x86_64-pc-linux-gnu"

%struct.darktable_t = type { %struct.dt_codepath_t, i32, i32, ptr, ptr, ptr, ptr, ptr, ptr, ptr, ptr, ptr, ptr, ptr, ptr, ptr, ptr, ptr, ptr, ptr, ptr, ptr, ptr, ptr, ptr, ptr, ptr, ptr, ptr, ptr, [64 x %struct.dt_pthread_mutex_t], %struct.dt_pthread_mutex_t, %struct.dt_pthread_mutex_t, %struct.dt_pthread_mutex_t, %struct.dt_pthread_mutex_t, %struct.dt_pthread_mutex_t, ptr, ptr, ptr, ptr, ptr, ptr, ptr, ptr, ptr, ptr, ptr, ptr, ptr, %struct.dt_lua_state_t, ptr, double, ptr, i32, [47 x i32], i32, i32, ptr, ptr, %struct.dt_sys_resources_t, %struct.dt_backthumb_t, %struct.dt_gimp_t }
%struct.dt_codepath_t = type { i8, [3 x i8] }
%struct.dt_pthread_mutex_t = type { %union.pthread_mutex_t }
%union.pthread_mutex_t = type { %struct.__pthread_mutex_s }
%struct.__pthread_mutex_s = type { i32, i32, i32, i32, i32, i16, i16, %struct.__pthread_internal_list }
%struct.__pthread_internal_list = type { ptr, ptr }
%struct.dt_lua_state_t = type { i32 }
%struct.dt_sys_resources_t = type { i64, i64, ptr, ptr, i32 }
%struct.dt_backthumb_t = type { double, double, i32, i32, i32, i32 }
%struct.dt_gimp_t = type { i32, ptr, ptr, i32, i32 }
%struct.dt_control_image_enumerator_t = type { ptr, i32, ptr, i32 }
%struct.dt_gui_gtk_t = type { ptr, %struct.dt_gui_widgets_t, %struct.dt_gui_scrollbars_t, i32, ptr, i32, [39 x %struct._GdkRGBA], i32, i32, i32, i32, i32, double, double, double, double, ptr, double, double, double, double, i32, i32, [4096 x i8], i32, i32, i32, %struct.dt_pthread_mutex_t }
%struct.dt_gui_widgets_t = type { ptr, ptr, ptr, ptr, i32, i32, i32 }
%struct.dt_gui_scrollbars_t = type { ptr, ptr, i32 }
%struct._GdkRGBA = type { double, double, double, double }

@darktable = external global %struct.darktable_t, align 8
@.str.22 = private unnamed_addr constant [17 x i8] c"select directory\00", align 1
@.str.23 = private unnamed_addr constant [23 x i8] c"_select as destination\00", align 1
@.str.24 = private unnamed_addr constant [8 x i8] c"_cancel\00", align 1
@.str.31 = private unnamed_addr constant [12 x i8] c"copy images\00", align 1
@.str.32 = private unnamed_addr constant [18 x i8] c"ui_last/copy_path\00", align 1
@.str.33 = private unnamed_addr constant [16 x i8] c"ask_before_copy\00", align 1
@.str.34 = private unnamed_addr constant [12 x i8] c"copy image?\00", align 1
@.str.35 = private unnamed_addr constant [13 x i8] c"copy images?\00", align 1
@.str.36 = private unnamed_addr constant [54 x i8] c"do you really want to physically copy %d image to %s?\00", align 1
@.str.37 = private unnamed_addr constant [55 x i8] c"do you really want to physically copy %d images to %s?\00", align 1

; Function Attrs: inlinehint nounwind uwtable
define internal ptr @GTK_NATIVE_DIALOG(ptr noundef %0) #5 {
  %2 = alloca ptr, align 8
  store ptr %0, ptr %2, align 8, !tbaa !6
  %3 = load ptr, ptr %2, align 8, !tbaa !6
  %4 = call i64 @gtk_native_dialog_get_type()
  %5 = call ptr @g_type_check_instance_cast(ptr noundef %3, i64 noundef %4)
  ret ptr %5
}

; Function Attrs: nounwind uwtable
define void @dt_control_copy_images() #0 {
  %1 = alloca ptr, align 8
  %2 = alloca ptr, align 8
  %3 = alloca ptr, align 8
  %4 = alloca ptr, align 8
  %5 = alloca i32, align 4
  %6 = alloca i32, align 4
  %7 = alloca ptr, align 8
  call void @llvm.lifetime.start.p0(i64 8, ptr %1) #14
  store ptr null, ptr %1, align 8, !tbaa !49
  call void @llvm.lifetime.start.p0(i64 8, ptr %2) #14
  %8 = load ptr, ptr getelementptr inbounds nuw (%struct.darktable_t, ptr @darktable, i32 0, i32 14), align 8, !tbaa !99
  %9 = getelementptr inbounds nuw %struct.dt_gui_gtk_t, ptr %8, i32 0, i32 0
  %10 = load ptr, ptr %9, align 8, !tbaa !100
  %11 = call ptr @dt_ui_main_window(ptr noundef %10)
  store ptr %11, ptr %2, align 8, !tbaa !106
  call void @llvm.lifetime.start.p0(i64 8, ptr %3) #14
  %12 = load ptr, ptr %1, align 8, !tbaa !49
  %13 = call ptr @dt_control_generic_images_job_create(ptr noundef @dt_control_copy_images_job_run, ptr noundef @.str.31, i32 noundef 0, ptr noundef %12, i32 noundef 2, i32 noundef 0)
  store ptr %13, ptr %3, align 8, !tbaa !51
  call void @llvm.lifetime.start.p0(i64 8, ptr %4) #14
  %14 = load ptr, ptr %3, align 8, !tbaa !51
  %15 = call ptr @dt_control_job_get_params(ptr noundef %14)
  store ptr %15, ptr %4, align 8, !tbaa !53
  call void @llvm.lifetime.start.p0(i64 4, ptr %5) #14
  %16 = load ptr, ptr %4, align 8, !tbaa !53
  %17 = getelementptr inbounds nuw %struct.dt_control_image_enumerator_t, ptr %16, i32 0, i32 0
  %18 = load ptr, ptr %17, align 8, !tbaa !57
  %19 = call i32 @g_list_length(ptr noundef %18)
  store i32 %19, ptr %5, align 4, !tbaa !50
  %20 = load i32, ptr %5, align 4, !tbaa !50
  %21 = icmp eq i32 %20, 0
  br i1 %21, label %22, label %24

22:                                               ; preds = %0
  %23 = load ptr, ptr %3, align 8, !tbaa !51
  call void @dt_control_job_dispose(ptr noundef %23)
  store i32 1, ptr %6, align 4
  br label %85

24:                                               ; preds = %0
  call void @llvm.lifetime.start.p0(i64 8, ptr %7) #14
  %25 = call ptr @dcgettext(ptr noundef null, ptr noundef @.str.22, i32 noundef 5) #14
  %26 = load ptr, ptr %2, align 8, !tbaa !106
  %27 = call i64 @gtk_window_get_type() #16
  %28 = call ptr @g_type_check_instance_cast(ptr noundef %26, i64 noundef %27)
  %29 = call ptr @dcgettext(ptr noundef null, ptr noundef @.str.23, i32 noundef 5) #14
  %30 = call ptr @dcgettext(ptr noundef null, ptr noundef @.str.24, i32 noundef 5) #14
  %31 = call ptr @gtk_file_chooser_native_new(ptr noundef %25, ptr noundef %28, i32 noundef 2, ptr noundef %29, ptr noundef %30)
  store ptr %31, ptr %7, align 8, !tbaa !107
  %32 = load ptr, ptr %7, align 8, !tbaa !107
  %33 = call i64 @gtk_file_chooser_get_type() #16
  %34 = call ptr @g_type_check_instance_cast(ptr noundef %32, i64 noundef %33)
  %35 = call i32 @dt_conf_get_folder_to_file_chooser(ptr noundef @.str.32, ptr noundef %34)
  %36 = load ptr, ptr %7, align 8, !tbaa !107
  %37 = call ptr @GTK_NATIVE_DIALOG(ptr noundef %36)
  %38 = call i32 @gtk_native_dialog_run(ptr noundef %37)
  %39 = icmp eq i32 %38, -3
  br i1 %39, label %40, label %48

40:                                               ; preds = %24
  %41 = load ptr, ptr %7, align 8, !tbaa !107
  %42 = call i64 @gtk_file_chooser_get_type() #16
  %43 = call ptr @g_type_check_instance_cast(ptr noundef %41, i64 noundef %42)
  %44 = call ptr @gtk_file_chooser_get_filename(ptr noundef %43)
  store ptr %44, ptr %1, align 8, !tbaa !49
  %45 = load ptr, ptr %7, align 8, !tbaa !107
  %46 = call i64 @gtk_file_chooser_get_type() #16
  %47 = call ptr @g_type_check_instance_cast(ptr noundef %45, i64 noundef %46)
  call void @dt_conf_set_folder_from_file_chooser(ptr noundef @.str.32, ptr noundef %47)
  br label %48

48:                                               ; preds = %40, %24
  %49 = load ptr, ptr %7, align 8, !tbaa !107
  call void @g_object_unref(ptr noundef %49)
  %50 = load ptr, ptr %1, align 8, !tbaa !49
  %51 = icmp ne ptr %50, null
  br i1 %51, label %52, label %56

52:                                               ; preds = %48
  %53 = load ptr, ptr %1, align 8, !tbaa !49
  %54 = call i32 @g_file_test(ptr noundef %53, i32 noundef 4)
  %55 = icmp ne i32 %54, 0
  br i1 %55, label %57, label %56

56:                                               ; preds = %52, %48
  br label %81

57:                                               ; preds = %52
  %58 = load ptr, ptr %1, align 8, !tbaa !49
  %59 = load ptr, ptr %3, align 8, !tbaa !51
  %60 = call ptr @dt_control_job_get_params(ptr noundef %59)
  %61 = getelementptr inbounds nuw %struct.dt_control_image_enumerator_t, ptr %60, i32 0, i32 2
  store ptr %58, ptr %61, align 8, !tbaa !59
  %62 = call i32 @dt_conf_get_bool(ptr noundef @.str.33)
  %63 = icmp ne i32 %62, 0
  br i1 %63, label %64, label %77

64:                                               ; preds = %57
  %65 = load i32, ptr %5, align 4, !tbaa !50
  %66 = sext i32 %65 to i64
  %67 = call ptr @dcngettext(ptr noundef null, ptr noundef @.str.34, ptr noundef @.str.35, i64 noundef %66, i32 noundef 5) #14
  %68 = load i32, ptr %5, align 4, !tbaa !50
  %69 = sext i32 %68 to i64
  %70 = call ptr @dcngettext(ptr noundef null, ptr noundef @.str.36, ptr noundef @.str.37, i64 noundef %69, i32 noundef 5) #14
  %71 = load i32, ptr %5, align 4, !tbaa !50
  %72 = load ptr, ptr %1, align 8, !tbaa !49
  %73 = call i32 (ptr, ptr, ...) @dt_gui_show_yes_no_dialog(ptr noundef %67, ptr noundef %70, i32 noundef %71, ptr noundef %72)
  %74 = icmp ne i32 %73, 0
  br i1 %74, label %76, label %75

75:                                               ; preds = %64
  br label %81

76:                                               ; preds = %64
  br label %77

77:                                               ; preds = %76, %57
  %78 = load ptr, ptr getelementptr inbounds nuw (%struct.darktable_t, ptr @darktable, i32 0, i32 12), align 8, !tbaa !10
  %79 = load ptr, ptr %3, align 8, !tbaa !51
  %80 = call i32 @dt_control_add_job(ptr noundef %78, i32 noundef 0, ptr noundef %79)
  store i32 1, ptr %6, align 4
  br label %84

81:                                               ; preds = %75, %56
  %82 = load ptr, ptr %1, align 8, !tbaa !49
  call void @g_free(ptr noundef %82)
  %83 = load ptr, ptr %3, align 8, !tbaa !51
  call void @dt_control_job_dispose(ptr noundef %83)
  store i32 0, ptr %6, align 4
  br label %84

84:                                               ; preds = %81, %77
  call void @llvm.lifetime.end.p0(i64 8, ptr %7) #14
  br label %85

85:                                               ; preds = %84, %22
  call void @llvm.lifetime.end.p0(i64 4, ptr %5) #14
  call void @llvm.lifetime.end.p0(i64 8, ptr %4) #14
  call void @llvm.lifetime.end.p0(i64 8, ptr %3) #14
  call void @llvm.lifetime.end.p0(i64 8, ptr %2) #14
  call void @llvm.lifetime.end.p0(i64 8, ptr %1) #14
  %86 = load i32, ptr %6, align 4
  switch i32 %86, label %88 [
    i32 0, label %87
    i32 1, label %87
  ]

87:                                               ; preds = %85, %85
  ret void

88:                                               ; preds = %85
  unreachable
}