; Function Attrs: nounwind uwtable
define void @dt_control_copy_images() local_unnamed_addr #0 {
  %1 = load ptr, ptr getelementptr inbounds nuw (i8, ptr @darktable, i64 104), align 8, !tbaa !92
  %2 = load ptr, ptr %1, align 8, !tbaa !93
  %3 = tail call ptr @dt_ui_main_window(ptr noundef %2) #17
  %4 = tail call fastcc ptr @dt_control_generic_images_job_create(ptr noundef nonnull @dt_control_copy_images_job_run, ptr noundef nonnull @.str.31, i32 noundef 0, ptr noundef null, i32 noundef 2, i32 noundef 0)
  %5 = tail call ptr @dt_control_job_get_params(ptr noundef %4) #17
  %6 = load ptr, ptr %5, align 8, !tbaa !50
  %7 = tail call i32 @g_list_length(ptr noundef %6) #17
  %8 = icmp eq i32 %7, 0
  br i1 %8, label %9, label %10

9:                                                ; preds = %0
  tail call void @dt_control_job_dispose(ptr noundef %4) #17
  br label %43

10:                                               ; preds = %0
  %11 = tail call ptr @dcgettext(ptr noundef null, ptr noundef nonnull @.str.22, i32 noundef 5) #17
  %12 = tail call i64 @gtk_window_get_type() #21
  %13 = tail call ptr @g_type_check_instance_cast(ptr noundef %3, i64 noundef %12) #17
  %14 = tail call ptr @dcgettext(ptr noundef null, ptr noundef nonnull @.str.23, i32 noundef 5) #17
  %15 = tail call ptr @dcgettext(ptr noundef null, ptr noundef nonnull @.str.24, i32 noundef 5) #17
  %16 = tail call ptr @gtk_file_chooser_native_new(ptr noundef %11, ptr noundef %13, i32 noundef 2, ptr noundef %14, ptr noundef %15) #17
  %17 = tail call i64 @gtk_file_chooser_get_type() #21
  %18 = tail call ptr @g_type_check_instance_cast(ptr noundef %16, i64 noundef %17) #17
  %19 = tail call i32 @dt_conf_get_folder_to_file_chooser(ptr noundef nonnull @.str.32, ptr noundef %18) #17
  %20 = tail call i64 @gtk_native_dialog_get_type() #17
  %21 = tail call ptr @g_type_check_instance_cast(ptr noundef %16, i64 noundef %20) #17
  %22 = tail call i32 @gtk_native_dialog_run(ptr noundef %21) #17
  %23 = icmp eq i32 %22, -3
  br i1 %23, label %24, label %.thread

.thread:                                          ; preds = %10
  tail call void @g_object_unref(ptr noundef %16) #17
  br label %42

24:                                               ; preds = %10
  %25 = tail call ptr @g_type_check_instance_cast(ptr noundef %16, i64 noundef %17) #17
  %26 = tail call ptr @gtk_file_chooser_get_filename(ptr noundef %25) #17
  %27 = tail call ptr @g_type_check_instance_cast(ptr noundef %16, i64 noundef %17) #17
  tail call void @dt_conf_set_folder_from_file_chooser(ptr noundef nonnull @.str.32, ptr noundef %27) #17
  tail call void @g_object_unref(ptr noundef %16) #17
  %.not = icmp eq ptr %26, null
  br i1 %.not, label %42, label %28

28:                                               ; preds = %24
  %29 = tail call i32 @g_file_test(ptr noundef nonnull %26, i32 noundef 4) #17
  %.not22 = icmp eq i32 %29, 0
  br i1 %.not22, label %42, label %30

30:                                               ; preds = %28
  %31 = tail call ptr @dt_control_job_get_params(ptr noundef %4) #17
  %32 = getelementptr inbounds nuw i8, ptr %31, i64 16
  store ptr %26, ptr %32, align 8, !tbaa !52
  %33 = tail call i32 @dt_conf_get_bool(ptr noundef nonnull @.str.33) #17
  %.not23 = icmp eq i32 %33, 0
  br i1 %.not23, label %39, label %34

34:                                               ; preds = %30
  %35 = sext i32 %7 to i64
  %36 = tail call ptr @dcngettext(ptr noundef null, ptr noundef nonnull @.str.34, ptr noundef nonnull @.str.35, i64 noundef %35, i32 noundef 5) #17
  %37 = tail call ptr @dcngettext(ptr noundef null, ptr noundef nonnull @.str.36, ptr noundef nonnull @.str.37, i64 noundef %35, i32 noundef 5) #17
  %38 = tail call i32 (ptr, ptr, ...) @dt_gui_show_yes_no_dialog(ptr noundef %36, ptr noundef %37, i32 noundef %7, ptr noundef nonnull %26) #17
  %.not24 = icmp eq i32 %38, 0
  br i1 %.not24, label %42, label %39

39:                                               ; preds = %34, %30
  %40 = load ptr, ptr getelementptr inbounds nuw (i8, ptr @darktable, i64 88), align 8, !tbaa !6
  %41 = tail call i32 @dt_control_add_job(ptr noundef %40, i32 noundef 0, ptr noundef %4) #17
  br label %43

42:                                               ; preds = %.thread, %34, %24, %28
  %.027 = phi ptr [ null, %.thread ], [ %26, %34 ], [ null, %24 ], [ %26, %28 ]
  tail call void @g_free(ptr noundef %.027) #17
  tail call void @dt_control_job_dispose(ptr noundef %4) #17
  br label %43

43:                                               ; preds = %39, %42, %9
  ret void
}